target datalayout = "e-m:e-p270:32:32-p271:32:32-p272:64:64-i64:64-i128:128-f80:128-n8:16:32:64-S128"
target triple = "x86_64-pc-linux-gnu"

%"class.llvm::APInt" = type <{ %union.anon, i32, [4 x i8] }>
%union.anon = type { i64 }

; Function Attrs: mustprogress nounwind uwtable
define linkonce_odr hidden noundef i32 @_ZN4llvm5APInt9whichWordEj(i32 noundef %0) #0 comdat align 2 {
  %2 = alloca i32, align 4
  store i32 %0, ptr %2, align 4
  %3 = load i32, ptr %2, align 4
  %4 = udiv i32 %3, 64
  ret i32 %4
}

; Function Attrs: mustprogress nounwind uwtable
define linkonce_odr hidden noundef i32 @_ZN4llvm5APInt8whichBitEj(i32 noundef %0) #0 comdat align 2 {
  %2 = alloca i32, align 4
  store i32 %0, ptr %2, align 4
  %3 = load i32, ptr %2, align 4
  %4 = urem i32 %3, 64
  ret i32 %4
}

; Function Attrs: mustprogress nounwind uwtable
define linkonce_odr hidden noundef zeroext i1 @_ZNK4llvm5APInt12isSingleWordEv(ptr noundef nonnull align 8 dereferenceable(12) %0) #0 comdat align 2 {
  %2 = alloca ptr, align 8
  store ptr %0, ptr %2, align 8
  %3 = load ptr, ptr %2, align 8
  %4 = getelementptr inbounds nuw %"class.llvm::APInt", ptr %3, i32 0, i32 1
  %5 = load i32, ptr %4, align 8
  %6 = icmp ule i32 %5, 64
  ret i1 %6
}

; Function Attrs: mustprogress nounwind uwtable
define linkonce_odr noundef i64 @_ZN4llvm16maskTrailingOnesImEET_j(i32 noundef %0) #0 comdat {
  %2 = alloca i64, align 8
  %3 = alloca i32, align 4
  %4 = alloca i32, align 4
  store i32 %0, ptr %3, align 4
  store i32 64, ptr %4, align 4
  %5 = load i32, ptr %3, align 4
  %6 = icmp eq i32 %5, 0
  br i1 %6, label %7, label %8

7:                                                ; preds = %1
  store i64 0, ptr %2, align 8
  br label %13

8:                                                ; preds = %1
  %9 = load i32, ptr %3, align 4
  %10 = sub i32 64, %9
  %11 = zext i32 %10 to i64
  %12 = lshr i64 -1, %11
  store i64 %12, ptr %2, align 8
  br label %13

13:                                               ; preds = %8, %7
  %14 = load i64, ptr %2, align 8
  ret i64 %14
}

; Function Attrs: mustprogress nounwind uwtable
define dso_local void @_ZN4llvm5APInt10insertBitsEmjj(ptr noundef nonnull align 8 dereferenceable(12) %0, i64 noundef %1, i32 noundef %2, i32 noundef %3) #0 align 2 {
  %5 = alloca ptr, align 8
  %6 = alloca i64, align 8
  %7 = alloca i32, align 4
  %8 = alloca i32, align 4
  %9 = alloca i64, align 8
  %10 = alloca i32, align 4
  %11 = alloca i32, align 4
  %12 = alloca i32, align 4
  %13 = alloca i32, align 4
  store ptr %0, ptr %5, align 8
  store i64 %1, ptr %6, align 8
  store i32 %2, ptr %7, align 4
  store i32 %3, ptr %8, align 4
  %14 = load ptr, ptr %5, align 8
  %15 = load i32, ptr %8, align 4
  %16 = call noundef i64 @_ZN4llvm16maskTrailingOnesImEET_j(i32 noundef %15)
  store i64 %16, ptr %9, align 8
  %17 = load i64, ptr %9, align 8
  %18 = load i64, ptr %6, align 8
  %19 = and i64 %18, %17
  store i64 %19, ptr %6, align 8
  %20 = call noundef zeroext i1 @_ZNK4llvm5APInt12isSingleWordEv(ptr noundef nonnull align 8 dereferenceable(12) %14)
  br i1 %20, label %21, label %37

21:                                               ; preds = %4
  %22 = load i64, ptr %9, align 8
  %23 = load i32, ptr %7, align 4
  %24 = zext i32 %23 to i64
  %25 = shl i64 %22, %24
  %26 = xor i64 %25, -1
  %27 = getelementptr inbounds nuw %"class.llvm::APInt", ptr %14, i32 0, i32 0
  %28 = load i64, ptr %27, align 8
  %29 = and i64 %28, %26
  store i64 %29, ptr %27, align 8
  %30 = load i64, ptr %6, align 8
  %31 = load i32, ptr %7, align 4
  %32 = zext i32 %31 to i64
  %33 = shl i64 %30, %32
  %34 = getelementptr inbounds nuw %"class.llvm::APInt", ptr %14, i32 0, i32 0
  %35 = load i64, ptr %34, align 8
  %36 = or i64 %35, %33
  store i64 %36, ptr %34, align 8
  br label %125

37:                                               ; preds = %4
  %38 = load i32, ptr %7, align 4
  %39 = call noundef i32 @_ZN4llvm5APInt8whichBitEj(i32 noundef %38)
  store i32 %39, ptr %10, align 4
  %40 = load i32, ptr %7, align 4
  %41 = call noundef i32 @_ZN4llvm5APInt9whichWordEj(i32 noundef %40)
  store i32 %41, ptr %11, align 4
  %42 = load i32, ptr %7, align 4
  %43 = load i32, ptr %8, align 4
  %44 = add i32 %42, %43
  %45 = sub i32 %44, 1
  %46 = call noundef i32 @_ZN4llvm5APInt9whichWordEj(i32 noundef %45)
  store i32 %46, ptr %12, align 4
  %47 = load i32, ptr %11, align 4
  %48 = load i32, ptr %12, align 4
  %49 = icmp eq i32 %47, %48
  br i1 %49, label %50, label %74

50:                                               ; preds = %37
  %51 = load i64, ptr %9, align 8
  %52 = load i32, ptr %10, align 4
  %53 = zext i32 %52 to i64
  %54 = shl i64 %51, %53
  %55 = xor i64 %54, -1
  %56 = getelementptr inbounds nuw %"class.llvm::APInt", ptr %14, i32 0, i32 0
  %57 = load ptr, ptr %56, align 8
  %58 = load i32, ptr %11, align 4
  %59 = zext i32 %58 to i64
  %60 = getelementptr inbounds i64, ptr %57, i64 %59
  %61 = load i64, ptr %60, align 8
  %62 = and i64 %61, %55
  store i64 %62, ptr %60, align 8
  %63 = load i64, ptr %6, align 8
  %64 = load i32, ptr %10, align 4
  %65 = zext i32 %64 to i64
  %66 = shl i64 %63, %65
  %67 = getelementptr inbounds nuw %"class.llvm::APInt", ptr %14, i32 0, i32 0
  %68 = load ptr, ptr %67, align 8
  %69 = load i32, ptr %11, align 4
  %70 = zext i32 %69 to i64
  %71 = getelementptr inbounds i64, ptr %68, i64 %70
  %72 = load i64, ptr %71, align 8
  %73 = or i64 %72, %66
  store i64 %73, ptr %71, align 8
  br label %125

74:                                               ; preds = %37
  store i32 64, ptr %13, align 4
  %75 = load i64, ptr %9, align 8
  %76 = load i32, ptr %10, align 4
  %77 = zext i32 %76 to i64
  %78 = shl i64 %75, %77
  %79 = xor i64 %78, -1
  %80 = getelementptr inbounds nuw %"class.llvm::APInt", ptr %14, i32 0, i32 0
  %81 = load ptr, ptr %80, align 8
  %82 = load i32, ptr %11, align 4
  %83 = zext i32 %82 to i64
  %84 = getelementptr inbounds i64, ptr %81, i64 %83
  %85 = load i64, ptr %84, align 8
  %86 = and i64 %85, %79
  store i64 %86, ptr %84, align 8
  %87 = load i64, ptr %6, align 8
  %88 = load i32, ptr %10, align 4
  %89 = zext i32 %88 to i64
  %90 = shl i64 %87, %89
  %91 = getelementptr inbounds nuw %"class.llvm::APInt", ptr %14, i32 0, i32 0
  %92 = load ptr, ptr %91, align 8
  %93 = load i32, ptr %11, align 4
  %94 = zext i32 %93 to i64
  %95 = getelementptr inbounds i64, ptr %92, i64 %94
  %96 = load i64, ptr %95, align 8
  %97 = or i64 %96, %90
  store i64 %97, ptr %95, align 8
  %98 = load i64, ptr %9, align 8
  %99 = load i32, ptr %13, align 4
  %100 = load i32, ptr %10, align 4
  %101 = sub i32 %99, %100
  %102 = zext i32 %101 to i64
  %103 = lshr i64 %98, %102
  %104 = xor i64 %103, -1
  %105 = getelementptr inbounds nuw %"class.llvm::APInt", ptr %14, i32 0, i32 0
  %106 = load ptr, ptr %105, align 8
  %107 = load i32, ptr %12, align 4
  %108 = zext i32 %107 to i64
  %109 = getelementptr inbounds i64, ptr %106, i64 %108
  %110 = load i64, ptr %109, align 8
  %111 = and i64 %110, %104
  store i64 %111, ptr %109, align 8
  %112 = load i64, ptr %6, align 8
  %113 = load i32, ptr %13, align 4
  %114 = load i32, ptr %10, align 4
  %115 = sub i32 %113, %114
  %116 = zext i32 %115 to i64
  %117 = lshr i64 %112, %116
  %118 = getelementptr inbounds nuw %"class.llvm::APInt", ptr %14, i32 0, i32 0
  %119 = load ptr, ptr %118, align 8
  %120 = load i32, ptr %12, align 4
  %121 = zext i32 %120 to i64
  %122 = getelementptr inbounds i64, ptr %119, i64 %121
  %123 = load i64, ptr %122, align 8
  %124 = or i64 %123, %117
  store i64 %124, ptr %122, align 8
  br label %125

125:                                              ; preds = %74, %50, %21
  ret void
}