; Function Attrs: mustprogress nofree norecurse nosync nounwind willreturn memory(readwrite, inaccessiblemem: none) uwtable
define dso_local void @_ZN4llvm5APInt10insertBitsEmjj(ptr noundef nonnull align 8 captures(none) dereferenceable(12) %0, i64 noundef %1, i32 noundef %2, i32 noundef %3) local_unnamed_addr #8 align 2 {
  %5 = icmp eq i32 %3, 0
  %6 = sub i32 64, %3
  %7 = zext nneg i32 %6 to i64
  %8 = lshr i64 -1, %7
  %.0.i = select i1 %5, i64 0, i64 %8
  %9 = and i64 %.0.i, %1
  %10 = getelementptr inbounds nuw i8, ptr %0, i64 8
  %11 = load i32, ptr %10, align 8
  %12 = icmp ult i32 %11, 65
  br i1 %12, label %13, label %21

13:                                               ; preds = %4
  %14 = zext i32 %2 to i64
  %15 = shl i64 %.0.i, %14
  %16 = xor i64 %15, -1
  %17 = load i64, ptr %0, align 8
  %18 = and i64 %17, %16
  %19 = shl i64 %9, %14
  %20 = or i64 %18, %19
  store i64 %20, ptr %0, align 8
  br label %56

21:                                               ; preds = %4
  %22 = and i32 %2, 63
  %23 = lshr i32 %2, 6
  %24 = add i32 %2, -1
  %25 = add i32 %24, %3
  %26 = lshr i32 %25, 6
  %27 = icmp eq i32 %23, %26
  %28 = zext nneg i32 %22 to i64
  %29 = shl i64 %.0.i, %28
  %30 = xor i64 %29, -1
  %31 = load ptr, ptr %0, align 8
  %32 = zext nneg i32 %23 to i64
  %33 = getelementptr inbounds nuw i64, ptr %31, i64 %32
  %34 = load i64, ptr %33, align 8
  %35 = and i64 %34, %30
  store i64 %35, ptr %33, align 8
  %36 = shl i64 %9, %28
  %37 = load ptr, ptr %0, align 8
  %38 = getelementptr inbounds nuw i64, ptr %37, i64 %32
  %39 = load i64, ptr %38, align 8
  %40 = or i64 %39, %36
  store i64 %40, ptr %38, align 8
  br i1 %27, label %56, label %41

41:                                               ; preds = %21
  %42 = sub nuw nsw i32 64, %22
  %43 = zext nneg i32 %42 to i64
  %44 = lshr i64 %.0.i, %43
  %45 = xor i64 %44, -1
  %46 = load ptr, ptr %0, align 8
  %47 = zext nneg i32 %26 to i64
  %48 = getelementptr inbounds nuw i64, ptr %46, i64 %47
  %49 = load i64, ptr %48, align 8
  %50 = and i64 %49, %45
  store i64 %50, ptr %48, align 8
  %51 = lshr i64 %9, %43
  %52 = load ptr, ptr %0, align 8
  %53 = getelementptr inbounds nuw i64, ptr %52, i64 %47
  %54 = load i64, ptr %53, align 8
  %55 = or i64 %54, %51
  store i64 %55, ptr %53, align 8
  br label %56

56:                                               ; preds = %21, %41, %13
  ret void
}